target datalayout = "e-m:e-p270:32:32-p271:32:32-p272:64:64-i64:64-i128:128-f80:128-n8:16:32:64-S128"
target triple = "x86_64-unknown-linux-gnu"

%"class.QuantLib::AbcdMathFunction" = type { double, double, double, double, %"class.std::vector", %"class.std::vector", double, double, double, double, double, double, double }
%"class.std::vector" = type { %"struct.std::_Vector_base" }
%"struct.std::_Vector_base" = type { %"struct.std::_Vector_base<double, std::allocator<double>>::_Vector_impl" }
%"struct.std::_Vector_base<double, std::allocator<double>>::_Vector_impl" = type { %"struct.std::_Vector_base<double, std::allocator<double>>::_Vector_impl_data" }
%"struct.std::_Vector_base<double, std::allocator<double>>::_Vector_impl_data" = type { ptr, ptr, ptr }

; Function Attrs: mustprogress nounwind uwtable
define linkonce_odr noundef nonnull align 8 dereferenceable(8) ptr @_ZNSt6vectorIdSaIdEEixEm(ptr noundef nonnull align 8 dereferenceable(24) %this, i64 noundef %__n) #3 comdat align 2 {
entry:
  %this.addr = alloca ptr, align 8
  %__n.addr = alloca i64, align 8
  store ptr %this, ptr %this.addr, align 8, !tbaa !9
  store i64 %__n, ptr %__n.addr, align 8, !tbaa !29
  %this1 = load ptr, ptr %this.addr, align 8
  %_M_impl = getelementptr inbounds nuw %"struct.std::_Vector_base", ptr %this1, i32 0, i32 0
  %_M_start = getelementptr inbounds nuw %"struct.std::_Vector_base<double, std::allocator<double>>::_Vector_impl_data", ptr %_M_impl, i32 0, i32 0
  %0 = load ptr, ptr %_M_start, align 8, !tbaa !31
  %1 = load i64, ptr %__n.addr, align 8, !tbaa !29
  %add.ptr = getelementptr inbounds nuw double, ptr %0, i64 %1
  ret ptr %add.ptr
}

; Function Attrs: mustprogress uwtable
define void @_ZN8QuantLib16AbcdMathFunction11initialize_Ev(ptr noundef nonnull align 8 dereferenceable(136) %this) #0 align 2 {
entry:
  %this.addr = alloca ptr, align 8
  store ptr %this, ptr %this.addr, align 8, !tbaa !9
  %this1 = load ptr, ptr %this.addr, align 8
  %a_ = getelementptr inbounds nuw %"class.QuantLib::AbcdMathFunction", ptr %this1, i32 0, i32 0
  %0 = load double, ptr %a_, align 8, !tbaa !13
  %b_ = getelementptr inbounds nuw %"class.QuantLib::AbcdMathFunction", ptr %this1, i32 0, i32 1
  %1 = load double, ptr %b_, align 8, !tbaa !19
  %c_ = getelementptr inbounds nuw %"class.QuantLib::AbcdMathFunction", ptr %this1, i32 0, i32 2
  %2 = load double, ptr %c_, align 8, !tbaa !20
  %d_ = getelementptr inbounds nuw %"class.QuantLib::AbcdMathFunction", ptr %this1, i32 0, i32 3
  %3 = load double, ptr %d_, align 8, !tbaa !21
  call void @_ZN8QuantLib16AbcdMathFunction8validateEdddd(double noundef %0, double noundef %1, double noundef %2, double noundef %3)
  %b_2 = getelementptr inbounds nuw %"class.QuantLib::AbcdMathFunction", ptr %this1, i32 0, i32 1
  %4 = load double, ptr %b_2, align 8, !tbaa !19
  %c_3 = getelementptr inbounds nuw %"class.QuantLib::AbcdMathFunction", ptr %this1, i32 0, i32 2
  %5 = load double, ptr %c_3, align 8, !tbaa !20
  %a_4 = getelementptr inbounds nuw %"class.QuantLib::AbcdMathFunction", ptr %this1, i32 0, i32 0
  %6 = load double, ptr %a_4, align 8, !tbaa !13
  %neg = fneg double %5
  %7 = call double @llvm.fmuladd.f64(double %neg, double %6, double %4)
  %da_ = getelementptr inbounds nuw %"class.QuantLib::AbcdMathFunction", ptr %this1, i32 0, i32 6
  store double %7, ptr %da_, align 8, !tbaa !22
  %c_5 = getelementptr inbounds nuw %"class.QuantLib::AbcdMathFunction", ptr %this1, i32 0, i32 2
  %8 = load double, ptr %c_5, align 8, !tbaa !20
  %fneg = fneg double %8
  %b_6 = getelementptr inbounds nuw %"class.QuantLib::AbcdMathFunction", ptr %this1, i32 0, i32 1
  %9 = load double, ptr %b_6, align 8, !tbaa !19
  %mul = fmul double %fneg, %9
  %db_ = getelementptr inbounds nuw %"class.QuantLib::AbcdMathFunction", ptr %this1, i32 0, i32 7
  store double %mul, ptr %db_, align 8, !tbaa !23
  %da_7 = getelementptr inbounds nuw %"class.QuantLib::AbcdMathFunction", ptr %this1, i32 0, i32 6
  %10 = load double, ptr %da_7, align 8, !tbaa !22
  %dabcd_ = getelementptr inbounds nuw %"class.QuantLib::AbcdMathFunction", ptr %this1, i32 0, i32 5
  %call = call noundef nonnull align 8 dereferenceable(8) ptr @_ZNSt6vectorIdSaIdEEixEm(ptr noundef nonnull align 8 dereferenceable(24) %dabcd_, i64 noundef 0) #15
  store double %10, ptr %call, align 8, !tbaa !3
  %db_8 = getelementptr inbounds nuw %"class.QuantLib::AbcdMathFunction", ptr %this1, i32 0, i32 7
  %11 = load double, ptr %db_8, align 8, !tbaa !23
  %dabcd_9 = getelementptr inbounds nuw %"class.QuantLib::AbcdMathFunction", ptr %this1, i32 0, i32 5
  %call10 = call noundef nonnull align 8 dereferenceable(8) ptr @_ZNSt6vectorIdSaIdEEixEm(ptr noundef nonnull align 8 dereferenceable(24) %dabcd_9, i64 noundef 1) #15
  store double %11, ptr %call10, align 8, !tbaa !3
  %c_11 = getelementptr inbounds nuw %"class.QuantLib::AbcdMathFunction", ptr %this1, i32 0, i32 2
  %12 = load double, ptr %c_11, align 8, !tbaa !20
  %dabcd_12 = getelementptr inbounds nuw %"class.QuantLib::AbcdMathFunction", ptr %this1, i32 0, i32 5
  %call13 = call noundef nonnull align 8 dereferenceable(8) ptr @_ZNSt6vectorIdSaIdEEixEm(ptr noundef nonnull align 8 dereferenceable(24) %dabcd_12, i64 noundef 2) #15
  store double %12, ptr %call13, align 8, !tbaa !3
  %dabcd_14 = getelementptr inbounds nuw %"class.QuantLib::AbcdMathFunction", ptr %this1, i32 0, i32 5
  %call15 = call noundef nonnull align 8 dereferenceable(8) ptr @_ZNSt6vectorIdSaIdEEixEm(ptr noundef nonnull align 8 dereferenceable(24) %dabcd_14, i64 noundef 3) #15
  store double 0.000000e+00, ptr %call15, align 8, !tbaa !3
  %a_16 = getelementptr inbounds nuw %"class.QuantLib::AbcdMathFunction", ptr %this1, i32 0, i32 0
  %13 = load double, ptr %a_16, align 8, !tbaa !13
  %b_17 = getelementptr inbounds nuw %"class.QuantLib::AbcdMathFunction", ptr %this1, i32 0, i32 1
  %14 = load double, ptr %b_17, align 8, !tbaa !19
  %c_18 = getelementptr inbounds nuw %"class.QuantLib::AbcdMathFunction", ptr %this1, i32 0, i32 2
  %15 = load double, ptr %c_18, align 8, !tbaa !20
  %div = fdiv double %14, %15
  %add = fadd double %13, %div
  %fneg19 = fneg double %add
  %c_20 = getelementptr inbounds nuw %"class.QuantLib::AbcdMathFunction", ptr %this1, i32 0, i32 2
  %16 = load double, ptr %c_20, align 8, !tbaa !20
  %div21 = fdiv double %fneg19, %16
  %pa_ = getelementptr inbounds nuw %"class.QuantLib::AbcdMathFunction", ptr %this1, i32 0, i32 8
  store double %div21, ptr %pa_, align 8, !tbaa !24
  %b_22 = getelementptr inbounds nuw %"class.QuantLib::AbcdMathFunction", ptr %this1, i32 0, i32 1
  %17 = load double, ptr %b_22, align 8, !tbaa !19
  %fneg23 = fneg double %17
  %c_24 = getelementptr inbounds nuw %"class.QuantLib::AbcdMathFunction", ptr %this1, i32 0, i32 2
  %18 = load double, ptr %c_24, align 8, !tbaa !20
  %div25 = fdiv double %fneg23, %18
  %pb_ = getelementptr inbounds nuw %"class.QuantLib::AbcdMathFunction", ptr %this1, i32 0, i32 9
  store double %div25, ptr %pb_, align 8, !tbaa !25
  %K_ = getelementptr inbounds nuw %"class.QuantLib::AbcdMathFunction", ptr %this1, i32 0, i32 10
  store double 0.000000e+00, ptr %K_, align 8, !tbaa !26
  %b_26 = getelementptr inbounds nuw %"class.QuantLib::AbcdMathFunction", ptr %this1, i32 0, i32 1
  %19 = load double, ptr %b_26, align 8, !tbaa !19
  %c_27 = getelementptr inbounds nuw %"class.QuantLib::AbcdMathFunction", ptr %this1, i32 0, i32 2
  %20 = load double, ptr %c_27, align 8, !tbaa !20
  %div28 = fdiv double %19, %20
  %dibc_ = getelementptr inbounds nuw %"class.QuantLib::AbcdMathFunction", ptr %this1, i32 0, i32 11
  store double %div28, ptr %dibc_, align 8, !tbaa !27
  %a_29 = getelementptr inbounds nuw %"class.QuantLib::AbcdMathFunction", ptr %this1, i32 0, i32 0
  %21 = load double, ptr %a_29, align 8, !tbaa !13
  %c_30 = getelementptr inbounds nuw %"class.QuantLib::AbcdMathFunction", ptr %this1, i32 0, i32 2
  %22 = load double, ptr %c_30, align 8, !tbaa !20
  %div31 = fdiv double %21, %22
  %dibc_32 = getelementptr inbounds nuw %"class.QuantLib::AbcdMathFunction", ptr %this1, i32 0, i32 11
  %23 = load double, ptr %dibc_32, align 8, !tbaa !27
  %c_33 = getelementptr inbounds nuw %"class.QuantLib::AbcdMathFunction", ptr %this1, i32 0, i32 2
  %24 = load double, ptr %c_33, align 8, !tbaa !20
  %div34 = fdiv double %23, %24
  %add35 = fadd double %div31, %div34
  %diacplusbcc_ = getelementptr inbounds nuw %"class.QuantLib::AbcdMathFunction", ptr %this1, i32 0, i32 12
  store double %add35, ptr %diacplusbcc_, align 8, !tbaa !28
  ret void
}