; Function Attrs: mustprogress uwtable
define void @_ZN8QuantLib16AbcdMathFunction11initialize_Ev(ptr nocapture noundef nonnull align 8 dereferenceable(136) %this) local_unnamed_addr #0 align 2 {
entry:
  %0 = load double, ptr %this, align 8, !tbaa !20
  %b_ = getelementptr inbounds nuw i8, ptr %this, i64 8
  %1 = load double, ptr %b_, align 8, !tbaa !27
  %c_ = getelementptr inbounds nuw i8, ptr %this, i64 16
  %2 = load double, ptr %c_, align 8, !tbaa !28
  %d_ = getelementptr inbounds nuw i8, ptr %this, i64 24
  %3 = load double, ptr %d_, align 8, !tbaa !29
  tail call void @_ZN8QuantLib16AbcdMathFunction8validateEdddd(double noundef %0, double noundef %1, double noundef %2, double noundef %3)
  %4 = load double, ptr %b_, align 8, !tbaa !27
  %5 = load double, ptr %c_, align 8, !tbaa !28
  %6 = load double, ptr %this, align 8, !tbaa !20
  %neg = fneg double %5
  %7 = tail call double @llvm.fmuladd.f64(double %neg, double %6, double %4)
  %da_ = getelementptr inbounds nuw i8, ptr %this, i64 80
  store double %7, ptr %da_, align 8, !tbaa !30
  %mul = fmul double %4, %neg
  %db_ = getelementptr inbounds nuw i8, ptr %this, i64 88
  store double %mul, ptr %db_, align 8, !tbaa !31
  %dabcd_ = getelementptr inbounds nuw i8, ptr %this, i64 56
  %8 = load ptr, ptr %dabcd_, align 8, !tbaa !32
  store double %7, ptr %8, align 8, !tbaa !33
  %9 = load double, ptr %db_, align 8, !tbaa !31
  %add.ptr.i = getelementptr inbounds nuw i8, ptr %8, i64 8
  store double %9, ptr %add.ptr.i, align 8, !tbaa !33
  %10 = load double, ptr %c_, align 8, !tbaa !28
  %add.ptr.i1 = getelementptr inbounds nuw i8, ptr %8, i64 16
  store double %10, ptr %add.ptr.i1, align 8, !tbaa !33
  %add.ptr.i2 = getelementptr inbounds nuw i8, ptr %8, i64 24
  store double 0.000000e+00, ptr %add.ptr.i2, align 8, !tbaa !33
  %11 = load double, ptr %this, align 8, !tbaa !20
  %12 = load double, ptr %b_, align 8, !tbaa !27
  %13 = load double, ptr %c_, align 8, !tbaa !28
  %div = fdiv double %12, %13
  %add = fadd double %11, %div
  %fneg19 = fneg double %add
  %div21 = fdiv double %fneg19, %13
  %pa_ = getelementptr inbounds nuw i8, ptr %this, i64 96
  store double %div21, ptr %pa_, align 8, !tbaa !34
  %fneg23 = fneg double %12
  %div25 = fdiv double %fneg23, %13
  %pb_ = getelementptr inbounds nuw i8, ptr %this, i64 104
  store double %div25, ptr %pb_, align 8, !tbaa !35
  %K_ = getelementptr inbounds nuw i8, ptr %this, i64 112
  store double 0.000000e+00, ptr %K_, align 8, !tbaa !36
  %dibc_ = getelementptr inbounds nuw i8, ptr %this, i64 120
  store double %div, ptr %dibc_, align 8, !tbaa !37
  %div31 = fdiv double %11, %13
  %div34 = fdiv double %div, %13
  %add35 = fadd double %div31, %div34
  %diacplusbcc_ = getelementptr inbounds nuw i8, ptr %this, i64 128
  store double %add35, ptr %diacplusbcc_, align 8, !tbaa !38
  ret void
}